target datalayout = "e-m:e-p270:32:32-p271:32:32-p272:64:64-i64:64-i128:128-f80:128-n8:16:32:64-S128"
target triple = "x86_64-pc-linux-gnu"

%"class.folly::MemoryMapping" = type { %"class.folly::File", ptr, i64, %"struct.folly::MemoryMapping::Options", i8, %"class.folly::Range" }
%"class.folly::File" = type <{ i32, i8, [3 x i8] }>
%"struct.folly::MemoryMapping::Options" = type { i64, i8, i8, i8, i8, i8, ptr }
%"class.folly::Range" = type { ptr, ptr }

; Function Attrs: inlinehint mustprogress nounwind uwtable
define linkonce_odr void @_ZSt4swapIPhENSt9enable_ifIXsr6__and_ISt6__not_ISt15__is_tuple_likeIT_EESt21is_move_constructibleIS4_ESt18is_move_assignableIS4_EEE5valueEvE4typeERS4_SD_(ptr noundef nonnull align 8 dereferenceable(8) %0, ptr noundef nonnull align 8 dereferenceable(8) %1) #12 comdat {
  %3 = alloca ptr, align 8
  %4 = alloca ptr, align 8
  %5 = alloca ptr, align 8
  store ptr %0, ptr %3, align 8, !tbaa !150
  store ptr %1, ptr %4, align 8, !tbaa !150
  call void @llvm.lifetime.start.p0(i64 8, ptr %5) #17
  %6 = load ptr, ptr %3, align 8, !tbaa !150
  %7 = load ptr, ptr %6, align 8, !tbaa !12
  store ptr %7, ptr %5, align 8, !tbaa !12
  %8 = load ptr, ptr %4, align 8, !tbaa !150
  %9 = load ptr, ptr %8, align 8, !tbaa !12
  %10 = load ptr, ptr %3, align 8, !tbaa !150
  store ptr %9, ptr %10, align 8, !tbaa !12
  %11 = load ptr, ptr %5, align 8, !tbaa !12
  %12 = load ptr, ptr %4, align 8, !tbaa !150
  store ptr %11, ptr %12, align 8, !tbaa !12
  call void @llvm.lifetime.end.p0(i64 8, ptr %5) #17
  ret void
}

; Function Attrs: mustprogress nounwind uwtable
define linkonce_odr void @_ZN5folly5RangeIPhE4swapERS2_(ptr noundef nonnull align 8 dereferenceable(16) %0, ptr noundef nonnull align 8 dereferenceable(16) %1) #2 comdat align 2 {
  %3 = alloca ptr, align 8
  %4 = alloca ptr, align 8
  store ptr %0, ptr %3, align 8, !tbaa !49
  store ptr %1, ptr %4, align 8, !tbaa !49
  %5 = load ptr, ptr %3, align 8
  %6 = getelementptr inbounds nuw %"class.folly::Range", ptr %5, i32 0, i32 0
  %7 = load ptr, ptr %4, align 8, !tbaa !49
  %8 = getelementptr inbounds nuw %"class.folly::Range", ptr %7, i32 0, i32 0
  call void @_ZSt4swapIPhENSt9enable_ifIXsr6__and_ISt6__not_ISt15__is_tuple_likeIT_EESt21is_move_constructibleIS4_ESt18is_move_assignableIS4_EEE5valueEvE4typeERS4_SD_(ptr noundef nonnull align 8 dereferenceable(8) %6, ptr noundef nonnull align 8 dereferenceable(8) %8) #17
  %9 = getelementptr inbounds nuw %"class.folly::Range", ptr %5, i32 0, i32 1
  %10 = load ptr, ptr %4, align 8, !tbaa !49
  %11 = getelementptr inbounds nuw %"class.folly::Range", ptr %10, i32 0, i32 1
  call void @_ZSt4swapIPhENSt9enable_ifIXsr6__and_ISt6__not_ISt15__is_tuple_likeIT_EESt21is_move_constructibleIS4_ESt18is_move_assignableIS4_EEE5valueEvE4typeERS4_SD_(ptr noundef nonnull align 8 dereferenceable(8) %9, ptr noundef nonnull align 8 dereferenceable(8) %11) #17
  ret void
}

; Function Attrs: mustprogress uwtable
define linkonce_odr void @_ZN5folly4swapIPhEEvRNS_5RangeIT_EES5_(ptr noundef nonnull align 8 dereferenceable(16) %0, ptr noundef nonnull align 8 dereferenceable(16) %1) #5 comdat {
  %3 = alloca ptr, align 8
  %4 = alloca ptr, align 8
  store ptr %0, ptr %3, align 8, !tbaa !49
  store ptr %1, ptr %4, align 8, !tbaa !49
  %5 = load ptr, ptr %3, align 8, !tbaa !49
  %6 = load ptr, ptr %4, align 8, !tbaa !49
  call void @_ZN5folly5RangeIPhE4swapERS2_(ptr noundef nonnull align 8 dereferenceable(16) %5, ptr noundef nonnull align 8 dereferenceable(16) %6)
  ret void
}

; Function Attrs: inlinehint mustprogress nounwind uwtable
define linkonce_odr void @_ZSt4swapIbENSt9enable_ifIXsr6__and_ISt6__not_ISt15__is_tuple_likeIT_EESt21is_move_constructibleIS3_ESt18is_move_assignableIS3_EEE5valueEvE4typeERS3_SC_(ptr noundef nonnull align 1 dereferenceable(1) %0, ptr noundef nonnull align 1 dereferenceable(1) %1) #12 comdat {
  %3 = alloca ptr, align 8
  %4 = alloca ptr, align 8
  %5 = alloca i8, align 1
  store ptr %0, ptr %3, align 8, !tbaa !94
  store ptr %1, ptr %4, align 8, !tbaa !94
  call void @llvm.lifetime.start.p0(i64 1, ptr %5) #17
  %6 = load ptr, ptr %3, align 8, !tbaa !94
  %7 = load i8, ptr %6, align 1, !tbaa !54, !range !63, !noundef !64
  %8 = trunc i8 %7 to i1
  %9 = zext i1 %8 to i8
  store i8 %9, ptr %5, align 1, !tbaa !54
  %10 = load ptr, ptr %4, align 8, !tbaa !94
  %11 = load i8, ptr %10, align 1, !tbaa !54, !range !63, !noundef !64
  %12 = trunc i8 %11 to i1
  %13 = load ptr, ptr %3, align 8, !tbaa !94
  %14 = zext i1 %12 to i8
  store i8 %14, ptr %13, align 1, !tbaa !54
  %15 = load i8, ptr %5, align 1, !tbaa !54, !range !63, !noundef !64
  %16 = trunc i8 %15 to i1
  %17 = load ptr, ptr %4, align 8, !tbaa !94
  %18 = zext i1 %16 to i8
  store i8 %18, ptr %17, align 1, !tbaa !54
  call void @llvm.lifetime.end.p0(i64 1, ptr %5) #17
  ret void
}

; Function Attrs: inlinehint mustprogress nounwind uwtable
define linkonce_odr void @_ZSt4swapIN5folly13MemoryMapping7OptionsEENSt9enable_ifIXsr6__and_ISt6__not_ISt15__is_tuple_likeIT_EESt21is_move_constructibleIS6_ESt18is_move_assignableIS6_EEE5valueEvE4typeERS6_SF_(ptr noundef nonnull align 8 dereferenceable(24) %0, ptr noundef nonnull align 8 dereferenceable(24) %1) #12 comdat {
  %3 = alloca ptr, align 8
  %4 = alloca ptr, align 8
  %5 = alloca %"struct.folly::MemoryMapping::Options", align 8
  store ptr %0, ptr %3, align 8, !tbaa !40
  store ptr %1, ptr %4, align 8, !tbaa !40
  call void @llvm.lifetime.start.p0(i64 24, ptr %5) #17
  %6 = load ptr, ptr %3, align 8, !tbaa !40
  call void @llvm.memcpy.p0.p0.i64(ptr align 8 %5, ptr align 8 %6, i64 24, i1 false), !tbaa.struct !53
  %7 = load ptr, ptr %4, align 8, !tbaa !40
  %8 = load ptr, ptr %3, align 8, !tbaa !40
  call void @llvm.memcpy.p0.p0.i64(ptr align 8 %8, ptr align 8 %7, i64 24, i1 false), !tbaa.struct !53
  %9 = load ptr, ptr %4, align 8, !tbaa !40
  call void @llvm.memcpy.p0.p0.i64(ptr align 8 %9, ptr align 8 %5, i64 24, i1 false), !tbaa.struct !53
  call void @llvm.lifetime.end.p0(i64 24, ptr %5) #17
  ret void
}

; Function Attrs: inlinehint mustprogress nounwind uwtable
define linkonce_odr void @_ZSt4swapIlENSt9enable_ifIXsr6__and_ISt6__not_ISt15__is_tuple_likeIT_EESt21is_move_constructibleIS3_ESt18is_move_assignableIS3_EEE5valueEvE4typeERS3_SC_(ptr noundef nonnull align 8 dereferenceable(8) %0, ptr noundef nonnull align 8 dereferenceable(8) %1) #12 comdat {
  %3 = alloca ptr, align 8
  %4 = alloca ptr, align 8
  %5 = alloca i64, align 8
  store ptr %0, ptr %3, align 8, !tbaa !65
  store ptr %1, ptr %4, align 8, !tbaa !65
  call void @llvm.lifetime.start.p0(i64 8, ptr %5) #17
  %6 = load ptr, ptr %3, align 8, !tbaa !65
  %7 = load i64, ptr %6, align 8, !tbaa !22
  store i64 %7, ptr %5, align 8, !tbaa !22
  %8 = load ptr, ptr %4, align 8, !tbaa !65
  %9 = load i64, ptr %8, align 8, !tbaa !22
  %10 = load ptr, ptr %3, align 8, !tbaa !65
  store i64 %9, ptr %10, align 8, !tbaa !22
  %11 = load i64, ptr %5, align 8, !tbaa !22
  %12 = load ptr, ptr %4, align 8, !tbaa !65
  store i64 %11, ptr %12, align 8, !tbaa !22
  call void @llvm.lifetime.end.p0(i64 8, ptr %5) #17
  ret void
}

; Function Attrs: inlinehint mustprogress nounwind uwtable
define linkonce_odr void @_ZSt4swapIPvENSt9enable_ifIXsr6__and_ISt6__not_ISt15__is_tuple_likeIT_EESt21is_move_constructibleIS4_ESt18is_move_assignableIS4_EEE5valueEvE4typeERS4_SD_(ptr noundef nonnull align 8 dereferenceable(8) %0, ptr noundef nonnull align 8 dereferenceable(8) %1) #12 comdat {
  %3 = alloca ptr, align 8
  %4 = alloca ptr, align 8
  %5 = alloca ptr, align 8
  store ptr %0, ptr %3, align 8, !tbaa !55
  store ptr %1, ptr %4, align 8, !tbaa !55
  call void @llvm.lifetime.start.p0(i64 8, ptr %5) #17
  %6 = load ptr, ptr %3, align 8, !tbaa !55
  %7 = load ptr, ptr %6, align 8, !tbaa !55
  store ptr %7, ptr %5, align 8, !tbaa !55
  %8 = load ptr, ptr %4, align 8, !tbaa !55
  %9 = load ptr, ptr %8, align 8, !tbaa !55
  %10 = load ptr, ptr %3, align 8, !tbaa !55
  store ptr %9, ptr %10, align 8, !tbaa !55
  %11 = load ptr, ptr %5, align 8, !tbaa !55
  %12 = load ptr, ptr %4, align 8, !tbaa !55
  store ptr %11, ptr %12, align 8, !tbaa !55
  call void @llvm.lifetime.end.p0(i64 8, ptr %5) #17
  ret void
}

; Function Attrs: noinline noreturn nounwind uwtable
define linkonce_odr hidden void @__clang_call_terminate(ptr noundef %0) #0 comdat {
  %2 = call ptr @__cxa_begin_catch(ptr %0) #17
  call void @_ZSt9terminatev() #18
  unreachable
}

; Function Attrs: mustprogress nounwind uwtable
define void @_ZN5folly13MemoryMapping4swapERS0_(ptr noundef nonnull align 8 dereferenceable(72) %0, ptr noundef nonnull align 8 dereferenceable(72) %1) #2 align 2 personality ptr @__gxx_personality_v0 {
  %3 = alloca ptr, align 8
  %4 = alloca ptr, align 8
  store ptr %0, ptr %3, align 8, !tbaa !25
  store ptr %1, ptr %4, align 8, !tbaa !25
  %5 = load ptr, ptr %3, align 8
  %6 = getelementptr inbounds nuw %"class.folly::MemoryMapping", ptr %5, i32 0, i32 0
  %7 = load ptr, ptr %4, align 8, !tbaa !25
  %8 = getelementptr inbounds nuw %"class.folly::MemoryMapping", ptr %7, i32 0, i32 0
  call void @_ZN5folly4swapERNS_4FileES1_(ptr noundef nonnull align 4 dereferenceable(5) %6, ptr noundef nonnull align 4 dereferenceable(5) %8) #17
  %9 = getelementptr inbounds nuw %"class.folly::MemoryMapping", ptr %5, i32 0, i32 1
  %10 = load ptr, ptr %4, align 8, !tbaa !25
  %11 = getelementptr inbounds nuw %"class.folly::MemoryMapping", ptr %10, i32 0, i32 1
  call void @_ZSt4swapIPvENSt9enable_ifIXsr6__and_ISt6__not_ISt15__is_tuple_likeIT_EESt21is_move_constructibleIS4_ESt18is_move_assignableIS4_EEE5valueEvE4typeERS4_SD_(ptr noundef nonnull align 8 dereferenceable(8) %9, ptr noundef nonnull align 8 dereferenceable(8) %11) #17
  %12 = getelementptr inbounds nuw %"class.folly::MemoryMapping", ptr %5, i32 0, i32 2
  %13 = load ptr, ptr %4, align 8, !tbaa !25
  %14 = getelementptr inbounds nuw %"class.folly::MemoryMapping", ptr %13, i32 0, i32 2
  call void @_ZSt4swapIlENSt9enable_ifIXsr6__and_ISt6__not_ISt15__is_tuple_likeIT_EESt21is_move_constructibleIS3_ESt18is_move_assignableIS3_EEE5valueEvE4typeERS3_SC_(ptr noundef nonnull align 8 dereferenceable(8) %12, ptr noundef nonnull align 8 dereferenceable(8) %14) #17
  %15 = getelementptr inbounds nuw %"class.folly::MemoryMapping", ptr %5, i32 0, i32 3
  %16 = load ptr, ptr %4, align 8, !tbaa !25
  %17 = getelementptr inbounds nuw %"class.folly::MemoryMapping", ptr %16, i32 0, i32 3
  call void @_ZSt4swapIN5folly13MemoryMapping7OptionsEENSt9enable_ifIXsr6__and_ISt6__not_ISt15__is_tuple_likeIT_EESt21is_move_constructibleIS6_ESt18is_move_assignableIS6_EEE5valueEvE4typeERS6_SF_(ptr noundef nonnull align 8 dereferenceable(24) %15, ptr noundef nonnull align 8 dereferenceable(24) %17) #17
  %18 = getelementptr inbounds nuw %"class.folly::MemoryMapping", ptr %5, i32 0, i32 4
  %19 = load ptr, ptr %4, align 8, !tbaa !25
  %20 = getelementptr inbounds nuw %"class.folly::MemoryMapping", ptr %19, i32 0, i32 4
  call void @_ZSt4swapIbENSt9enable_ifIXsr6__and_ISt6__not_ISt15__is_tuple_likeIT_EESt21is_move_constructibleIS3_ESt18is_move_assignableIS3_EEE5valueEvE4typeERS3_SC_(ptr noundef nonnull align 1 dereferenceable(1) %18, ptr noundef nonnull align 1 dereferenceable(1) %20) #17
  %21 = getelementptr inbounds nuw %"class.folly::MemoryMapping", ptr %5, i32 0, i32 5
  %22 = load ptr, ptr %4, align 8, !tbaa !25
  %23 = getelementptr inbounds nuw %"class.folly::MemoryMapping", ptr %22, i32 0, i32 5
  invoke void @_ZN5folly4swapIPhEEvRNS_5RangeIT_EES5_(ptr noundef nonnull align 8 dereferenceable(16) %21, ptr noundef nonnull align 8 dereferenceable(16) %23)
          to label %24 unwind label %25

24:                                               ; preds = %2
  ret void

25:                                               ; preds = %2
  %26 = landingpad { ptr, i32 }
          catch ptr null
  %27 = extractvalue { ptr, i32 } %26, 0
  call void @__clang_call_terminate(ptr %27) #18
  unreachable
}

; Function Attrs: mustprogress nounwind uwtable
define linkonce_odr void @_ZN5folly5RangeIPhEC2Ev(ptr noundef nonnull align 8 dereferenceable(16) %0) unnamed_addr #2 comdat align 2 {
  %2 = alloca ptr, align 8
  store ptr %0, ptr %2, align 8, !tbaa !49
  %3 = load ptr, ptr %2, align 8
  %4 = getelementptr inbounds nuw %"class.folly::Range", ptr %3, i32 0, i32 0
  store ptr null, ptr %4, align 8, !tbaa !51
  %5 = getelementptr inbounds nuw %"class.folly::Range", ptr %3, i32 0, i32 1
  store ptr null, ptr %5, align 8, !tbaa !52
  ret void
}

; Function Attrs: mustprogress nounwind uwtable
define linkonce_odr void @_ZN5folly13MemoryMapping7OptionsC2Ev(ptr noundef nonnull align 8 dereferenceable(24) %0) unnamed_addr #2 comdat align 2 {
  %2 = alloca ptr, align 8
  store ptr %0, ptr %2, align 8, !tbaa !40
  %3 = load ptr, ptr %2, align 8
  %4 = getelementptr inbounds nuw %"struct.folly::MemoryMapping::Options", ptr %3, i32 0, i32 0
  store i64 0, ptr %4, align 8, !tbaa !42
  %5 = getelementptr inbounds nuw %"struct.folly::MemoryMapping::Options", ptr %3, i32 0, i32 1
  store i8 1, ptr %5, align 8, !tbaa !43
  %6 = getelementptr inbounds nuw %"struct.folly::MemoryMapping::Options", ptr %3, i32 0, i32 2
  store i8 0, ptr %6, align 1, !tbaa !44
  %7 = getelementptr inbounds nuw %"struct.folly::MemoryMapping::Options", ptr %3, i32 0, i32 3
  store i8 1, ptr %7, align 2, !tbaa !45
  %8 = getelementptr inbounds nuw %"struct.folly::MemoryMapping::Options", ptr %3, i32 0, i32 4
  store i8 0, ptr %8, align 1, !tbaa !46
  %9 = getelementptr inbounds nuw %"struct.folly::MemoryMapping::Options", ptr %3, i32 0, i32 5
  store i8 0, ptr %9, align 4, !tbaa !47
  %10 = getelementptr inbounds nuw %"struct.folly::MemoryMapping::Options", ptr %3, i32 0, i32 6
  store ptr null, ptr %10, align 8, !tbaa !48
  ret void
}

; Function Attrs: mustprogress nounwind uwtable
define linkonce_odr void @_ZN5folly4FileC2Ev(ptr noundef nonnull align 4 dereferenceable(5) %0) unnamed_addr #2 comdat align 2 {
  %2 = alloca ptr, align 8
  store ptr %0, ptr %2, align 8, !tbaa !36
  %3 = load ptr, ptr %2, align 8
  %4 = getelementptr inbounds nuw %"class.folly::File", ptr %3, i32 0, i32 0
  store i32 -1, ptr %4, align 4, !tbaa !38
  %5 = getelementptr inbounds nuw %"class.folly::File", ptr %3, i32 0, i32 1
  store i8 0, ptr %5, align 4, !tbaa !39
  ret void
}

; Function Attrs: mustprogress nounwind uwtable
define void @_ZN5folly13MemoryMappingC2EOS0_(ptr noundef nonnull align 8 dereferenceable(72) %0, ptr noundef nonnull align 8 dereferenceable(72) %1) unnamed_addr #2 align 2 personality ptr @__gxx_personality_v0 {
  %3 = alloca ptr, align 8
  %4 = alloca ptr, align 8
  store ptr %0, ptr %3, align 8, !tbaa !25
  store ptr %1, ptr %4, align 8, !tbaa !25
  %5 = load ptr, ptr %3, align 8
  %6 = getelementptr inbounds nuw %"class.folly::MemoryMapping", ptr %5, i32 0, i32 0
  call void @_ZN5folly4FileC2Ev(ptr noundef nonnull align 4 dereferenceable(5) %6) #17
  %7 = getelementptr inbounds nuw %"class.folly::MemoryMapping", ptr %5, i32 0, i32 1
  store ptr null, ptr %7, align 8, !tbaa !27
  %8 = getelementptr inbounds nuw %"class.folly::MemoryMapping", ptr %5, i32 0, i32 2
  store i64 0, ptr %8, align 8, !tbaa !34
  %9 = getelementptr inbounds nuw %"class.folly::MemoryMapping", ptr %5, i32 0, i32 3
  invoke void @_ZN5folly13MemoryMapping7OptionsC2Ev(ptr noundef nonnull align 8 dereferenceable(24) %9)
          to label %10 unwind label %15

10:                                               ; preds = %2
  %11 = getelementptr inbounds nuw %"class.folly::MemoryMapping", ptr %5, i32 0, i32 4
  store i8 0, ptr %11, align 8, !tbaa !35
  %12 = getelementptr inbounds nuw %"class.folly::MemoryMapping", ptr %5, i32 0, i32 5
  invoke void @_ZN5folly5RangeIPhEC2Ev(ptr noundef nonnull align 8 dereferenceable(16) %12)
          to label %13 unwind label %15

13:                                               ; preds = %10
  %14 = load ptr, ptr %4, align 8, !tbaa !25
  call void @_ZN5folly13MemoryMapping4swapERS0_(ptr noundef nonnull align 8 dereferenceable(72) %5, ptr noundef nonnull align 8 dereferenceable(72) %14) #17
  ret void

15:                                               ; preds = %10, %2
  %16 = landingpad { ptr, i32 }
          catch ptr null
  %17 = extractvalue { ptr, i32 } %16, 0
  call void @__clang_call_terminate(ptr %17) #18
  unreachable
}