; Function Attrs: mustprogress nounwind uwtable
define void @_ZN5folly13MemoryMappingC2EOS0_(ptr noundef nonnull align 8 dereferenceable(72) initializes((0, 5), (8, 37), (40, 49), (56, 72)) %0, ptr noundef nonnull align 8 dereferenceable(72) %1) unnamed_addr #6 align 2 personality ptr @__gxx_personality_v0 {
  %3 = alloca %"struct.folly::MemoryMapping::Options", align 8
  store i32 -1, ptr %0, align 8, !tbaa !7
  %4 = getelementptr inbounds nuw i8, ptr %0, i64 4
  store i8 0, ptr %4, align 4, !tbaa !13
  %5 = getelementptr inbounds nuw i8, ptr %0, i64 8
  %6 = getelementptr inbounds nuw i8, ptr %0, i64 16
  %7 = getelementptr inbounds nuw i8, ptr %0, i64 24
  %8 = getelementptr inbounds nuw i8, ptr %0, i64 32
  tail call void @llvm.memset.p0.i64(ptr noundef nonnull align 8 dereferenceable(24) %5, i8 0, i64 24, i1 false)
  store i8 1, ptr %8, align 8, !tbaa !14
  %9 = getelementptr inbounds nuw i8, ptr %0, i64 33
  store i8 0, ptr %9, align 1, !tbaa !18
  %10 = getelementptr inbounds nuw i8, ptr %0, i64 34
  store i8 1, ptr %10, align 2, !tbaa !19
  %11 = getelementptr inbounds nuw i8, ptr %0, i64 35
  store i8 0, ptr %11, align 1, !tbaa !20
  %12 = getelementptr inbounds nuw i8, ptr %0, i64 36
  store i8 0, ptr %12, align 4, !tbaa !21
  %13 = getelementptr inbounds nuw i8, ptr %0, i64 40
  store ptr null, ptr %13, align 8, !tbaa !22
  %14 = getelementptr inbounds nuw i8, ptr %0, i64 48
  store i8 0, ptr %14, align 8, !tbaa !23
  %15 = getelementptr inbounds nuw i8, ptr %0, i64 56
  tail call void @llvm.memset.p0.i64(ptr noundef nonnull align 8 dereferenceable(16) %15, i8 0, i64 16, i1 false)
  tail call void @_ZN5folly4swapERNS_4FileES1_(ptr noundef nonnull align 8 dereferenceable(72) %0, ptr noundef nonnull align 8 dereferenceable(72) %1) #20
  %16 = getelementptr inbounds nuw i8, ptr %1, i64 8
  %17 = load ptr, ptr %5, align 8, !tbaa !27
  %18 = load ptr, ptr %16, align 8, !tbaa !27
  store ptr %18, ptr %5, align 8, !tbaa !27
  store ptr %17, ptr %16, align 8, !tbaa !27
  %19 = getelementptr inbounds nuw i8, ptr %1, i64 16
  %20 = load i64, ptr %6, align 8, !tbaa !28
  %21 = load i64, ptr %19, align 8, !tbaa !28
  store i64 %21, ptr %6, align 8, !tbaa !28
  store i64 %20, ptr %19, align 8, !tbaa !28
  %22 = getelementptr inbounds nuw i8, ptr %1, i64 24
  call void @llvm.lifetime.start.p0(i64 24, ptr nonnull %3)
  call void @llvm.memcpy.p0.p0.i64(ptr noundef nonnull align 8 dereferenceable(24) %3, ptr noundef nonnull align 8 dereferenceable(24) %7, i64 24, i1 false), !tbaa.struct !29
  tail call void @llvm.memcpy.p0.p0.i64(ptr noundef nonnull align 8 dereferenceable(24) %7, ptr noundef nonnull align 8 dereferenceable(24) %22, i64 24, i1 false), !tbaa.struct !29
  call void @llvm.memcpy.p0.p0.i64(ptr noundef nonnull align 8 dereferenceable(24) %22, ptr noundef nonnull align 8 dereferenceable(24) %3, i64 24, i1 false), !tbaa.struct !29
  call void @llvm.lifetime.end.p0(i64 24, ptr nonnull %3)
  %23 = getelementptr inbounds nuw i8, ptr %1, i64 48
  %24 = load i8, ptr %14, align 8, !tbaa !30, !range !31, !noundef !32
  %25 = load i8, ptr %23, align 8, !tbaa !30, !range !31, !noundef !32
  store i8 %25, ptr %14, align 8, !tbaa !30
  store i8 %24, ptr %23, align 8, !tbaa !30
  %26 = getelementptr inbounds nuw i8, ptr %1, i64 56
  %27 = load ptr, ptr %15, align 8, !tbaa !33
  %28 = load ptr, ptr %26, align 8, !tbaa !33
  store ptr %28, ptr %15, align 8, !tbaa !33
  store ptr %27, ptr %26, align 8, !tbaa !33
  %29 = getelementptr inbounds nuw i8, ptr %0, i64 64
  %30 = getelementptr inbounds nuw i8, ptr %1, i64 64
  %31 = load ptr, ptr %29, align 8, !tbaa !33
  %32 = load ptr, ptr %30, align 8, !tbaa !33
  store ptr %32, ptr %29, align 8, !tbaa !33
  store ptr %31, ptr %30, align 8, !tbaa !33
  ret void
}